; ModuleID = '20/1289.c'
source_filename = "20/1289.c"
target datalayout = "e-m:e-p270:32:32-p271:32:32-p272:64:64-i64:64-f80:128-n8:16:32:64-S128"
target triple = "x86_64-pc-linux-gnu"

@.str = private unnamed_addr constant [5 x i8] c"%s%s\00", align 1
@.str.1 = private unnamed_addr constant [4 x i8] c"%s\0A\00", align 1

; Function Attrs: noinline nounwind uwtable
define dso_local void @main() #0 {
  %1 = alloca i32, align 4
  %2 = alloca i32, align 4
  %3 = alloca i32, align 4
  %4 = alloca i32, align 4
  %5 = alloca i32, align 4
  %6 = alloca i32, align 4
  %7 = alloca [50 x i8], align 16
  %8 = alloca [4 x i8], align 1
  br label %9

9:                                                ; preds = %95, %0
  %10 = getelementptr inbounds [50 x i8], [50 x i8]* %7, i64 0, i64 0
  %11 = getelementptr inbounds [4 x i8], [4 x i8]* %8, i64 0, i64 0
  %12 = call i32 (i8*, ...) @__isoc99_scanf(i8* getelementptr inbounds ([5 x i8], [5 x i8]* @.str, i64 0, i64 0), i8* %10, i8* %11)
  %13 = icmp ne i32 %12, -1
  br i1 %13, label %14, label %102

14:                                               ; preds = %9
  %15 = getelementptr inbounds [50 x i8], [50 x i8]* %7, i64 0, i64 0
  %16 = call i64 @strlen(i8* %15) #3
  %17 = trunc i64 %16 to i32
  store i32 %17, i32* %5, align 4
  store i32 0, i32* %1, align 4
  br label %18

18:                                               ; preds = %54, %14
  %19 = load i32, i32* %1, align 4
  %20 = load i32, i32* %5, align 4
  %21 = sub nsw i32 %20, 1
  %22 = icmp sle i32 %19, %21
  br i1 %22, label %23, label %57

23:                                               ; preds = %18
  store i32 0, i32* %2, align 4
  store i32 0, i32* %6, align 4
  br label %24

24:                                               ; preds = %45, %23
  %25 = load i32, i32* %2, align 4
  %26 = load i32, i32* %5, align 4
  %27 = sub nsw i32 %26, 1
  %28 = icmp sle i32 %25, %27
  br i1 %28, label %29, label %48

29:                                               ; preds = %24
  %30 = load i32, i32* %1, align 4
  %31 = sext i32 %30 to i64
  %32 = getelementptr inbounds [50 x i8], [50 x i8]* %7, i64 0, i64 %31
  %33 = load i8, i8* %32, align 1
  %34 = sext i8 %33 to i32
  %35 = load i32, i32* %2, align 4
  %36 = sext i32 %35 to i64
  %37 = getelementptr inbounds [50 x i8], [50 x i8]* %7, i64 0, i64 %36
  %38 = load i8, i8* %37, align 1
  %39 = sext i8 %38 to i32
  %40 = icmp sge i32 %34, %39
  br i1 %40, label %41, label %44

41:                                               ; preds = %29
  %42 = load i32, i32* %6, align 4
  %43 = add nsw i32 %42, 1
  store i32 %43, i32* %6, align 4
  br label %44

44:                                               ; preds = %41, %29
  br label %45

45:                                               ; preds = %44
  %46 = load i32, i32* %2, align 4
  %47 = add nsw i32 %46, 1
  store i32 %47, i32* %2, align 4
  br label %24

48:                                               ; preds = %24
  %49 = load i32, i32* %6, align 4
  %50 = load i32, i32* %5, align 4
  %51 = icmp eq i32 %49, %50
  br i1 %51, label %52, label %53

52:                                               ; preds = %48
  br label %57

53:                                               ; preds = %48
  br label %54

54:                                               ; preds = %53
  %55 = load i32, i32* %1, align 4
  %56 = add nsw i32 %55, 1
  store i32 %56, i32* %1, align 4
  br label %18

57:                                               ; preds = %52, %18
  %58 = load i32, i32* %5, align 4
  %59 = sub nsw i32 %58, 1
  store i32 %59, i32* %3, align 4
  br label %60

60:                                               ; preds = %74, %57
  %61 = load i32, i32* %3, align 4
  %62 = load i32, i32* %1, align 4
  %63 = add nsw i32 %62, 1
  %64 = icmp sge i32 %61, %63
  br i1 %64, label %65, label %77

65:                                               ; preds = %60
  %66 = load i32, i32* %3, align 4
  %67 = sext i32 %66 to i64
  %68 = getelementptr inbounds [50 x i8], [50 x i8]* %7, i64 0, i64 %67
  %69 = load i8, i8* %68, align 1
  %70 = load i32, i32* %3, align 4
  %71 = add nsw i32 %70, 3
  %72 = sext i32 %71 to i64
  %73 = getelementptr inbounds [50 x i8], [50 x i8]* %7, i64 0, i64 %72
  store i8 %69, i8* %73, align 1
  br label %74

74:                                               ; preds = %65
  %75 = load i32, i32* %3, align 4
  %76 = add nsw i32 %75, -1
  store i32 %76, i32* %3, align 4
  br label %60

77:                                               ; preds = %60
  store i32 1, i32* %4, align 4
  br label %78

78:                                               ; preds = %92, %77
  %79 = load i32, i32* %4, align 4
  %80 = icmp sle i32 %79, 3
  br i1 %80, label %81, label %95

81:                                               ; preds = %78
  %82 = load i32, i32* %4, align 4
  %83 = sub nsw i32 %82, 1
  %84 = sext i32 %83 to i64
  %85 = getelementptr inbounds [4 x i8], [4 x i8]* %8, i64 0, i64 %84
  %86 = load i8, i8* %85, align 1
  %87 = load i32, i32* %1, align 4
  %88 = load i32, i32* %4, align 4
  %89 = add nsw i32 %87, %88
  %90 = sext i32 %89 to i64
  %91 = getelementptr inbounds [50 x i8], [50 x i8]* %7, i64 0, i64 %90
  store i8 %86, i8* %91, align 1
  br label %92

92:                                               ; preds = %81
  %93 = load i32, i32* %4, align 4
  %94 = add nsw i32 %93, 1
  store i32 %94, i32* %4, align 4
  br label %78

95:                                               ; preds = %78
  %96 = load i32, i32* %5, align 4
  %97 = add nsw i32 %96, 3
  %98 = sext i32 %97 to i64
  %99 = getelementptr inbounds [50 x i8], [50 x i8]* %7, i64 0, i64 %98
  store i8 0, i8* %99, align 1
  %100 = getelementptr inbounds [50 x i8], [50 x i8]* %7, i64 0, i64 0
  %101 = call i32 (i8*, ...) @printf(i8* getelementptr inbounds ([4 x i8], [4 x i8]* @.str.1, i64 0, i64 0), i8* %100)
  br label %9

102:                                              ; preds = %9
  ret void
}

declare dso_local i32 @__isoc99_scanf(i8*, ...) #1

; Function Attrs: nounwind readonly
declare dso_local i64 @strlen(i8*) #2

declare dso_local i32 @printf(i8*, ...) #1


!llvm.module.flags = !{!0}
!llvm.ident = !{!1}

!0 = !{i32 1, !"wchar_size", i32 4}
!1 = !{!"clang version 10.0.0-4ubuntu1 "}
